; Function Attrs: mustprogress noreturn uwtable
define hidden noalias noundef nonnull ptr @_ZN8facebook6hermes7tracing14TracingRuntime4dataERKNS_3jsi11ArrayBufferE(ptr nocapture nonnull readnone align 8 %this, ptr nocapture nonnull readnone align 8 %buf) unnamed_addr #6 align 2 personality ptr @__gxx_personality_v0 {
entry:
  %exception = tail call ptr @__cxa_allocate_exception(i64 16) #27
  invoke void @_ZNSt11logic_errorC1EPKc(ptr noundef nonnull align 8 dereferenceable(16) %exception, ptr noundef nonnull @.str.6)
          to label %invoke.cont unwind label %lpad

invoke.cont:                                      ; preds = %entry
  tail call void @__cxa_throw(ptr nonnull %exception, ptr nonnull @_ZTISt11logic_error, ptr nonnull @_ZNSt11logic_errorD1Ev) #31
  unreachable

lpad:                                             ; preds = %entry
  %0 = landingpad { ptr, i32 }
          cleanup
  tail call void @__cxa_free_exception(ptr %exception) #27
  resume { ptr, i32 } %0
}